target datalayout = "e-m:e-p270:32:32-p271:32:32-p272:64:64-i64:64-i128:128-f80:128-n8:16:32:64-S128"
target triple = "x86_64-pc-linux-gnu"

; Function Attrs: mustprogress nounwind uwtable
define internal noundef i32 @_ZN7glslang12_GLOBAL__N_16op_divEii(i32 noundef %0, i32 noundef %1) #0 {
  %3 = alloca i32, align 4
  %4 = alloca i32, align 4
  store i32 %0, ptr %3, align 4
  store i32 %1, ptr %4, align 4
  %5 = load i32, ptr %3, align 4
  %6 = icmp eq i32 %5, -2147483648
  br i1 %6, label %7, label %11

7:                                                ; preds = %2
  %8 = load i32, ptr %4, align 4
  %9 = icmp eq i32 %8, -1
  br i1 %9, label %10, label %11

10:                                               ; preds = %7
  br label %15

11:                                               ; preds = %7, %2
  %12 = load i32, ptr %3, align 4
  %13 = load i32, ptr %4, align 4
  %14 = sdiv i32 %12, %13
  br label %15

15:                                               ; preds = %11, %10
  %16 = phi i32 [ 0, %10 ], [ %14, %11 ]
  ret i32 %16
}